target datalayout = "e-m:e-p270:32:32-p271:32:32-p272:64:64-i64:64-i128:128-f80:128-n8:16:32:64-S128"
target triple = "x86_64-pc-linux-gnu"

@hf_gadu_gadu_contact_uin = internal global i32 0, align 4
@hf_gadu_gadu_contact_type = internal global i32 0, align 4
@ett_gadu_gadu_contact = internal global i32 0, align 4
@.str.285 = private unnamed_addr constant [12 x i8] c"Contact: %u\00", align 1

; Function Attrs: null_pointer_is_valid sspstrong uwtable
define internal i32 @dissect_gadu_gadu_notify_common(ptr noundef %0, ptr noundef %1, ptr noundef %2, i32 noundef %3) #0 {
  %5 = alloca ptr, align 8
  %6 = alloca ptr, align 8
  %7 = alloca ptr, align 8
  %8 = alloca i32, align 4
  %9 = alloca ptr, align 8
  %10 = alloca i32, align 4
  store ptr %0, ptr %5, align 8
  store ptr %1, ptr %6, align 8
  store ptr %2, ptr %7, align 8
  store i32 %3, ptr %8, align 4
  call void @llvm.lifetime.start.p0(i64 8, ptr %9) #6
  br label %11

11:                                               ; preds = %16, %4
  %12 = load ptr, ptr %5, align 8
  %13 = load i32, ptr %8, align 4
  %14 = call i32 @tvb_reported_length_remaining(ptr noundef %12, i32 noundef %13)
  %15 = icmp sge i32 %14, 5
  br i1 %15, label %16, label %40

16:                                               ; preds = %11
  call void @llvm.lifetime.start.p0(i64 4, ptr %10) #6
  %17 = load ptr, ptr %5, align 8
  %18 = load i32, ptr %8, align 4
  %19 = call i32 @tvb_get_letohl(ptr noundef %17, i32 noundef %18)
  store i32 %19, ptr %10, align 4
  %20 = load ptr, ptr %7, align 8
  %21 = load ptr, ptr %5, align 8
  %22 = load i32, ptr %8, align 4
  %23 = load i32, ptr @ett_gadu_gadu_contact, align 4
  %24 = load i32, ptr %10, align 4
  %25 = call ptr (ptr, ptr, i32, i32, i32, ptr, ptr, ...) @proto_tree_add_subtree_format(ptr noundef %20, ptr noundef %21, i32 noundef %22, i32 noundef 5, i32 noundef %23, ptr noundef null, ptr noundef @.str.285, i32 noundef %24)
  store ptr %25, ptr %9, align 8
  %26 = load ptr, ptr %9, align 8
  %27 = load i32, ptr @hf_gadu_gadu_contact_uin, align 4
  %28 = load ptr, ptr %5, align 8
  %29 = load i32, ptr %8, align 4
  %30 = call ptr @proto_tree_add_item(ptr noundef %26, i32 noundef %27, ptr noundef %28, i32 noundef %29, i32 noundef 4, i32 noundef -2147483648)
  %31 = load i32, ptr %8, align 4
  %32 = add i32 %31, 4
  store i32 %32, ptr %8, align 4
  %33 = load ptr, ptr %9, align 8
  %34 = load i32, ptr @hf_gadu_gadu_contact_type, align 4
  %35 = load ptr, ptr %5, align 8
  %36 = load i32, ptr %8, align 4
  %37 = call ptr @proto_tree_add_item(ptr noundef %33, i32 noundef %34, ptr noundef %35, i32 noundef %36, i32 noundef 1, i32 noundef -2147483648)
  %38 = load i32, ptr %8, align 4
  %39 = add i32 %38, 1
  store i32 %39, ptr %8, align 4
  call void @llvm.lifetime.end.p0(i64 4, ptr %10) #6
  br label %11, !llvm.loop !17

40:                                               ; preds = %11
  %41 = load i32, ptr %8, align 4
  call void @llvm.lifetime.end.p0(i64 8, ptr %9) #6
  ret i32 %41
}