; Function Attrs: null_pointer_is_valid sspstrong uwtable
define internal fastcc noundef i32 @dissect_gadu_gadu_notify_common(ptr noundef %0, ptr noundef %1) unnamed_addr #0 {
  %3 = tail call i32 @tvb_reported_length_remaining(ptr noundef %0, i32 noundef 8)
  %4 = icmp sgt i32 %3, 4
  br i1 %4, label %.lr.ph, label %._crit_edge

.lr.ph:                                           ; preds = %2, %.lr.ph
  %.01 = phi i32 [ %13, %.lr.ph ], [ 8, %2 ]
  %5 = tail call i32 @tvb_get_letohl(ptr noundef %0, i32 noundef %.01)
  %6 = load i32, ptr @ett_gadu_gadu_contact, align 4
  %7 = tail call ptr (ptr, ptr, i32, i32, i32, ptr, ptr, ...) @proto_tree_add_subtree_format(ptr noundef %1, ptr noundef %0, i32 noundef %.01, i32 noundef 5, i32 noundef %6, ptr noundef null, ptr noundef nonnull @.str.285, i32 noundef %5)
  %8 = load i32, ptr @hf_gadu_gadu_contact_uin, align 4
  %9 = tail call ptr @proto_tree_add_item(ptr noundef %7, i32 noundef %8, ptr noundef %0, i32 noundef %.01, i32 noundef 4, i32 noundef -2147483648)
  %10 = add i32 %.01, 4
  %11 = load i32, ptr @hf_gadu_gadu_contact_type, align 4
  %12 = tail call ptr @proto_tree_add_item(ptr noundef %7, i32 noundef %11, ptr noundef %0, i32 noundef %10, i32 noundef 1, i32 noundef -2147483648)
  %13 = add i32 %.01, 5
  %14 = tail call i32 @tvb_reported_length_remaining(ptr noundef %0, i32 noundef %13)
  %15 = icmp sgt i32 %14, 4
  br i1 %15, label %.lr.ph, label %._crit_edge, !llvm.loop !17

._crit_edge:                                      ; preds = %.lr.ph, %2
  %.0.lcssa = phi i32 [ 8, %2 ], [ %13, %.lr.ph ]
  ret i32 %.0.lcssa
}